; Function Attrs: nounwind uwtable
define hidden void @je_buf_writer_flush(ptr noundef captures(none) %0) local_unnamed_addr #0 {
  %2 = getelementptr inbounds nuw i8, ptr %0, i64 16
  %3 = load ptr, ptr %2, align 8, !tbaa !31
  %4 = icmp eq ptr %3, null
  br i1 %4, label %13, label %5

5:                                                ; preds = %1
  %6 = getelementptr inbounds nuw i8, ptr %0, i64 32
  %7 = load i64, ptr %6, align 8, !tbaa !38
  %8 = getelementptr inbounds nuw i8, ptr %3, i64 %7
  store i8 0, ptr %8, align 1, !tbaa !14
  %9 = load ptr, ptr %0, align 8, !tbaa !4
  %10 = getelementptr inbounds nuw i8, ptr %0, i64 8
  %11 = load ptr, ptr %10, align 8, !tbaa !12
  %12 = load ptr, ptr %2, align 8, !tbaa !31
  tail call void %9(ptr noundef %11, ptr noundef %12) #8
  store i64 0, ptr %6, align 8, !tbaa !38
  br label %13

13:                                               ; preds = %1, %5
  ret void
}